target datalayout = "e-m:e-p270:32:32-p271:32:32-p272:64:64-i64:64-i128:128-f80:128-n8:16:32:64-S128"
target triple = "x86_64-pc-linux-gnu"

%struct.lv_subject_t = type { %struct.lv_ll_t, %union.lv_subject_value_t, %union.lv_subject_value_t, ptr, i32 }
%struct.lv_ll_t = type { i32, ptr, ptr }
%union.lv_subject_value_t = type { ptr }

; Function Attrs: nounwind uwtable
define internal void @lv_subject_notify_if_changed(ptr noundef %0) #0 {
  %2 = alloca ptr, align 8
  %3 = alloca i24, align 8
  %4 = alloca i24, align 8
  store ptr %0, ptr %2, align 8, !tbaa !3
  %5 = load ptr, ptr %2, align 8, !tbaa !3
  %6 = getelementptr inbounds nuw %struct.lv_subject_t, ptr %5, i32 0, i32 4
  %7 = load i32, ptr %6, align 8
  %8 = and i32 %7, 15
  switch i32 %8, label %51 [
    i32 0, label %9
    i32 1, label %9
    i32 2, label %10
    i32 5, label %21
    i32 3, label %21
    i32 4, label %23
    i32 6, label %34
  ]

9:                                                ; preds = %1, %1
  br label %51

10:                                               ; preds = %1
  %11 = load ptr, ptr %2, align 8, !tbaa !3
  %12 = getelementptr inbounds nuw %struct.lv_subject_t, ptr %11, i32 0, i32 1
  %13 = load i32, ptr %12, align 8, !tbaa !9
  %14 = load ptr, ptr %2, align 8, !tbaa !3
  %15 = getelementptr inbounds nuw %struct.lv_subject_t, ptr %14, i32 0, i32 2
  %16 = load i32, ptr %15, align 8, !tbaa !9
  %17 = icmp ne i32 %13, %16
  br i1 %17, label %18, label %20

18:                                               ; preds = %10
  %19 = load ptr, ptr %2, align 8, !tbaa !3
  call void @lv_subject_notify(ptr noundef %19)
  br label %20

20:                                               ; preds = %18, %10
  br label %51

21:                                               ; preds = %1, %1
  %22 = load ptr, ptr %2, align 8, !tbaa !3
  call void @lv_subject_notify(ptr noundef %22)
  br label %51

23:                                               ; preds = %1
  %24 = load ptr, ptr %2, align 8, !tbaa !3
  %25 = getelementptr inbounds nuw %struct.lv_subject_t, ptr %24, i32 0, i32 1
  %26 = load ptr, ptr %2, align 8, !tbaa !3
  %27 = getelementptr inbounds nuw %struct.lv_subject_t, ptr %26, i32 0, i32 2
  call void @llvm.memcpy.p0.p0.i64(ptr align 8 %3, ptr align 8 %25, i64 3, i1 false)
  %28 = load i24, ptr %3, align 8
  call void @llvm.memcpy.p0.p0.i64(ptr align 8 %4, ptr align 8 %27, i64 3, i1 false)
  %29 = load i24, ptr %4, align 8
  %30 = call zeroext i1 @lv_color_eq(i24 %28, i24 %29)
  br i1 %30, label %33, label %31

31:                                               ; preds = %23
  %32 = load ptr, ptr %2, align 8, !tbaa !3
  call void @lv_subject_notify(ptr noundef %32)
  br label %33

33:                                               ; preds = %31, %23
  br label %51

34:                                               ; preds = %1
  %35 = load ptr, ptr %2, align 8, !tbaa !3
  %36 = getelementptr inbounds nuw %struct.lv_subject_t, ptr %35, i32 0, i32 2
  %37 = load ptr, ptr %36, align 8, !tbaa !9
  %38 = icmp ne ptr %37, null
  br i1 %38, label %39, label %48

39:                                               ; preds = %34
  %40 = load ptr, ptr %2, align 8, !tbaa !3
  %41 = getelementptr inbounds nuw %struct.lv_subject_t, ptr %40, i32 0, i32 1
  %42 = load ptr, ptr %41, align 8, !tbaa !9
  %43 = load ptr, ptr %2, align 8, !tbaa !3
  %44 = getelementptr inbounds nuw %struct.lv_subject_t, ptr %43, i32 0, i32 2
  %45 = load ptr, ptr %44, align 8, !tbaa !9
  %46 = call i32 @lv_strcmp(ptr noundef %42, ptr noundef %45)
  %47 = icmp ne i32 %46, 0
  br i1 %47, label %48, label %50

48:                                               ; preds = %39, %34
  %49 = load ptr, ptr %2, align 8, !tbaa !3
  call void @lv_subject_notify(ptr noundef %49)
  br label %50

50:                                               ; preds = %48, %39
  br label %51

51:                                               ; preds = %9, %1, %50, %33, %21, %20
  ret void
}

; Function Attrs: nounwind uwtable
define void @lv_subject_set_int(ptr noundef %0, i32 noundef %1) #0 {
  %3 = alloca ptr, align 8
  %4 = alloca i32, align 4
  store ptr %0, ptr %3, align 8, !tbaa !3
  store i32 %1, ptr %4, align 4, !tbaa !7
  %5 = load ptr, ptr %3, align 8, !tbaa !3
  %6 = getelementptr inbounds nuw %struct.lv_subject_t, ptr %5, i32 0, i32 4
  %7 = load i32, ptr %6, align 8
  %8 = and i32 %7, 15
  %9 = icmp ne i32 %8, 2
  br i1 %9, label %10, label %13

10:                                               ; preds = %2
  br label %11

11:                                               ; preds = %10
  br label %12

12:                                               ; preds = %11
  br label %23

13:                                               ; preds = %2
  %14 = load ptr, ptr %3, align 8, !tbaa !3
  %15 = getelementptr inbounds nuw %struct.lv_subject_t, ptr %14, i32 0, i32 1
  %16 = load i32, ptr %15, align 8, !tbaa !9
  %17 = load ptr, ptr %3, align 8, !tbaa !3
  %18 = getelementptr inbounds nuw %struct.lv_subject_t, ptr %17, i32 0, i32 2
  store i32 %16, ptr %18, align 8, !tbaa !9
  %19 = load i32, ptr %4, align 4, !tbaa !7
  %20 = load ptr, ptr %3, align 8, !tbaa !3
  %21 = getelementptr inbounds nuw %struct.lv_subject_t, ptr %20, i32 0, i32 1
  store i32 %19, ptr %21, align 8, !tbaa !9
  %22 = load ptr, ptr %3, align 8, !tbaa !3
  call void @lv_subject_notify_if_changed(ptr noundef %22)
  br label %23

23:                                               ; preds = %13, %12
  ret void
}

; Function Attrs: nounwind uwtable
define internal void @roller_value_changed_event_cb(ptr noundef %0) #0 {
  %2 = alloca ptr, align 8
  %3 = alloca ptr, align 8
  %4 = alloca ptr, align 8
  store ptr %0, ptr %2, align 8, !tbaa !23
  call void @llvm.lifetime.start.p0(i64 8, ptr %3) #6
  %5 = load ptr, ptr %2, align 8, !tbaa !23
  %6 = call ptr @lv_event_get_current_target(ptr noundef %5)
  store ptr %6, ptr %3, align 8, !tbaa !26
  call void @llvm.lifetime.start.p0(i64 8, ptr %4) #6
  %7 = load ptr, ptr %2, align 8, !tbaa !23
  %8 = call ptr @lv_event_get_user_data(ptr noundef %7)
  store ptr %8, ptr %4, align 8, !tbaa !3
  %9 = load ptr, ptr %4, align 8, !tbaa !3
  %10 = load ptr, ptr %3, align 8, !tbaa !26
  %11 = call i32 @lv_roller_get_selected(ptr noundef %10)
  call void @lv_subject_set_int(ptr noundef %9, i32 noundef %11)
  call void @llvm.lifetime.end.p0(i64 8, ptr %4) #6
  call void @llvm.lifetime.end.p0(i64 8, ptr %3) #6
  ret void
}